; ModuleID = '40/212.c'
source_filename = "40/212.c"
target datalayout = "e-m:e-p270:32:32-p271:32:32-p272:64:64-i64:64-f80:128-n8:16:32:64-S128"
target triple = "x86_64-pc-linux-gnu"

@.str = private unnamed_addr constant [16 x i8] c"%lf%lf%lf%lf%lf\00", align 1
@.str.1 = private unnamed_addr constant [14 x i8] c"Invalid input\00", align 1
@.str.2 = private unnamed_addr constant [6 x i8] c"%.4lf\00", align 1

; Function Attrs: noinline nounwind uwtable
define dso_local i32 @main() #0 {
  %1 = alloca i32, align 4
  %2 = alloca double, align 8
  %3 = alloca double, align 8
  %4 = alloca double, align 8
  %5 = alloca double, align 8
  %6 = alloca double, align 8
  %7 = alloca double, align 8
  %8 = alloca double, align 8
  %9 = alloca double, align 8
  %10 = alloca double, align 8
  store i32 0, i32* %1, align 4
  %11 = call i32 (i8*, ...) @__isoc99_scanf(i8* getelementptr inbounds ([16 x i8], [16 x i8]* @.str, i64 0, i64 0), double* %2, double* %3, double* %4, double* %5, double* %6)
  %12 = load double, double* %2, align 8
  %13 = load double, double* %3, align 8
  %14 = fadd double %12, %13
  %15 = load double, double* %4, align 8
  %16 = fadd double %14, %15
  %17 = load double, double* %5, align 8
  %18 = fadd double %16, %17
  %19 = fdiv double %18, 2.000000e+00
  store double %19, double* %7, align 8
  %20 = load double, double* %6, align 8
  %21 = fmul double %20, 0x400921FB4D12D84A
  %22 = fdiv double %21, 3.600000e+02
  %23 = call double @cos(double %22) #3
  store double %23, double* %8, align 8
  %24 = load double, double* %7, align 8
  %25 = load double, double* %2, align 8
  %26 = fsub double %24, %25
  %27 = load double, double* %7, align 8
  %28 = load double, double* %3, align 8
  %29 = fsub double %27, %28
  %30 = fmul double %26, %29
  %31 = load double, double* %7, align 8
  %32 = load double, double* %4, align 8
  %33 = fsub double %31, %32
  %34 = fmul double %30, %33
  %35 = load double, double* %7, align 8
  %36 = load double, double* %5, align 8
  %37 = fsub double %35, %36
  %38 = fmul double %34, %37
  store double %38, double* %9, align 8
  %39 = load double, double* %9, align 8
  %40 = fcmp olt double %39, 0.000000e+00
  br i1 %40, label %41, label %43

41:                                               ; preds = %0
  %42 = call i32 (i8*, ...) @printf(i8* getelementptr inbounds ([14 x i8], [14 x i8]* @.str.1, i64 0, i64 0))
  br label %60

43:                                               ; preds = %0
  %44 = load double, double* %9, align 8
  %45 = load double, double* %2, align 8
  %46 = load double, double* %3, align 8
  %47 = fmul double %45, %46
  %48 = load double, double* %4, align 8
  %49 = fmul double %47, %48
  %50 = load double, double* %5, align 8
  %51 = fmul double %49, %50
  %52 = load double, double* %8, align 8
  %53 = fmul double %51, %52
  %54 = load double, double* %8, align 8
  %55 = fmul double %53, %54
  %56 = fsub double %44, %55
  %57 = call double @sqrt(double %56) #3
  store double %57, double* %10, align 8
  %58 = load double, double* %10, align 8
  %59 = call i32 (i8*, ...) @printf(i8* getelementptr inbounds ([6 x i8], [6 x i8]* @.str.2, i64 0, i64 0), double %58)
  br label %60

60:                                               ; preds = %43, %41
  ret i32 0
}

declare dso_local i32 @__isoc99_scanf(i8*, ...) #1

; Function Attrs: nounwind
declare dso_local double @cos(double) #2

declare dso_local i32 @printf(i8*, ...) #1

; Function Attrs: nounwind
declare dso_local double @sqrt(double) #2


!llvm.module.flags = !{!0}
!llvm.ident = !{!1}

!0 = !{i32 1, !"wchar_size", i32 4}
!1 = !{!"clang version 10.0.0-4ubuntu1 "}
